target datalayout = "e-m:e-p270:32:32-p271:32:32-p272:64:64-i64:64-i128:128-f80:128-n8:16:32:64-S128"
target triple = "x86_64-pc-linux-gnu"

%struct.H6 = type { i64, i64, i64, i32, i32, i32, ptr, ptr, ptr }

; Function Attrs: alwaysinline nounwind uwtable
define internal i64 @BrotliUnalignedRead64(ptr noundef %0) #3 {
  %2 = alloca ptr, align 8
  %3 = alloca i64, align 8
  store ptr %0, ptr %2, align 8, !tbaa !48
  call void @llvm.lifetime.start.p0(i64 8, ptr %3) #10
  %4 = load ptr, ptr %2, align 8, !tbaa !48
  call void @llvm.memcpy.p0.p0.i64(ptr align 8 %3, ptr align 1 %4, i64 8, i1 false)
  %5 = load i64, ptr %3, align 8, !tbaa !75
  call void @llvm.lifetime.end.p0(i64 8, ptr %3) #10
  ret i64 %5
}

; Function Attrs: alwaysinline nounwind uwtable
define internal i64 @HashBytesH6(ptr noalias noundef %0, i64 noundef %1) #3 {
  %3 = alloca ptr, align 8
  %4 = alloca i64, align 8
  %5 = alloca i64, align 8
  store ptr %0, ptr %3, align 8, !tbaa !76
  store i64 %1, ptr %4, align 8, !tbaa !75
  call void @llvm.lifetime.start.p0(i64 8, ptr %5) #10
  %6 = load ptr, ptr %3, align 8, !tbaa !76
  %7 = call i64 @BrotliUnalignedRead64(ptr noundef %6)
  %8 = load i64, ptr %4, align 8, !tbaa !75
  %9 = mul i64 %7, %8
  store i64 %9, ptr %5, align 8, !tbaa !75
  %10 = load i64, ptr %5, align 8, !tbaa !75
  %11 = lshr i64 %10, 49
  call void @llvm.lifetime.end.p0(i64 8, ptr %5) #10
  ret i64 %11
}

; Function Attrs: nounwind uwtable
define internal void @PrepareH6(ptr noalias noundef %0, i32 noundef %1, i64 noundef %2, ptr noalias noundef %3) #0 {
  %5 = alloca ptr, align 8
  %6 = alloca i32, align 4
  %7 = alloca i64, align 8
  %8 = alloca ptr, align 8
  %9 = alloca ptr, align 8
  %10 = alloca i64, align 8
  %11 = alloca i64, align 8
  %12 = alloca i64, align 8
  store ptr %0, ptr %5, align 8, !tbaa !204
  store i32 %1, ptr %6, align 4, !tbaa !8
  store i64 %2, ptr %7, align 8, !tbaa !75
  store ptr %3, ptr %8, align 8, !tbaa !76
  call void @llvm.lifetime.start.p0(i64 8, ptr %9) #10
  %13 = load ptr, ptr %5, align 8, !tbaa !204
  %14 = getelementptr inbounds nuw %struct.H6, ptr %13, i32 0, i32 7
  %15 = load ptr, ptr %14, align 8, !tbaa !259
  store ptr %15, ptr %9, align 8, !tbaa !119
  call void @llvm.lifetime.start.p0(i64 8, ptr %10) #10
  %16 = load ptr, ptr %5, align 8, !tbaa !204
  %17 = getelementptr inbounds nuw %struct.H6, ptr %16, i32 0, i32 0
  %18 = load i64, ptr %17, align 8, !tbaa !254
  %19 = lshr i64 %18, 6
  store i64 %19, ptr %10, align 8, !tbaa !75
  %20 = load i32, ptr %6, align 4, !tbaa !8
  %21 = icmp ne i32 %20, 0
  br i1 %21, label %22, label %46

22:                                               ; preds = %4
  %23 = load i64, ptr %7, align 8, !tbaa !75
  %24 = load i64, ptr %10, align 8, !tbaa !75
  %25 = icmp ule i64 %23, %24
  br i1 %25, label %26, label %46

26:                                               ; preds = %22
  call void @llvm.lifetime.start.p0(i64 8, ptr %11) #10
  store i64 0, ptr %11, align 8, !tbaa !75
  br label %27

27:                                               ; preds = %42, %26
  %28 = load i64, ptr %11, align 8, !tbaa !75
  %29 = load i64, ptr %7, align 8, !tbaa !75
  %30 = icmp ult i64 %28, %29
  br i1 %30, label %31, label %45

31:                                               ; preds = %27
  call void @llvm.lifetime.start.p0(i64 8, ptr %12) #10
  %32 = load ptr, ptr %8, align 8, !tbaa !76
  %33 = load i64, ptr %11, align 8, !tbaa !75
  %34 = getelementptr inbounds nuw i8, ptr %32, i64 %33
  %35 = load ptr, ptr %5, align 8, !tbaa !204
  %36 = getelementptr inbounds nuw %struct.H6, ptr %35, i32 0, i32 2
  %37 = load i64, ptr %36, align 8, !tbaa !253
  %38 = call i64 @HashBytesH6(ptr noundef %34, i64 noundef %37)
  store i64 %38, ptr %12, align 8, !tbaa !75
  %39 = load ptr, ptr %9, align 8, !tbaa !119
  %40 = load i64, ptr %12, align 8, !tbaa !75
  %41 = getelementptr inbounds nuw i16, ptr %39, i64 %40
  store i16 0, ptr %41, align 2, !tbaa !173
  call void @llvm.lifetime.end.p0(i64 8, ptr %12) #10
  br label %42

42:                                               ; preds = %31
  %43 = load i64, ptr %11, align 8, !tbaa !75
  %44 = add i64 %43, 1
  store i64 %44, ptr %11, align 8, !tbaa !75
  br label %27, !llvm.loop !319

45:                                               ; preds = %27
  call void @llvm.lifetime.end.p0(i64 8, ptr %11) #10
  br label %52

46:                                               ; preds = %22, %4
  %47 = load ptr, ptr %9, align 8, !tbaa !119
  %48 = load ptr, ptr %5, align 8, !tbaa !204
  %49 = getelementptr inbounds nuw %struct.H6, ptr %48, i32 0, i32 0
  %50 = load i64, ptr %49, align 8, !tbaa !254
  %51 = mul i64 %50, 2
  call void @llvm.memset.p0.i64(ptr align 2 %47, i8 0, i64 %51, i1 false)
  br label %52

52:                                               ; preds = %46, %45
  call void @llvm.lifetime.end.p0(i64 8, ptr %10) #10
  call void @llvm.lifetime.end.p0(i64 8, ptr %9) #10
  ret void
}